ARM GAS  C:\Users\billa\AppData\Local\Temp\ccAkbpv1.s 			page 1


   1              		.cpu cortex-m4
   2              		.arch armv7e-m
   3              		.fpu fpv4-sp-d16
   4              		.eabi_attribute 27, 1
   5              		.eabi_attribute 28, 1
   6              		.eabi_attribute 20, 1
   7              		.eabi_attribute 21, 1
   8              		.eabi_attribute 23, 3
   9              		.eabi_attribute 24, 1
  10              		.eabi_attribute 25, 1
  11              		.eabi_attribute 26, 1
  12              		.eabi_attribute 30, 1
  13              		.eabi_attribute 34, 1
  14              		.eabi_attribute 18, 4
  15              		.file	"main.c"
  16              		.text
  17              	.Ltext0:
  18              		.cfi_sections	.debug_frame
  19              		.file 1 "Core/Src/main.c"
  20              		.section	.text.Error_Handler,"ax",%progbits
  21              		.align	1
  22              		.global	Error_Handler
  23              		.syntax unified
  24              		.thumb
  25              		.thumb_func
  27              	Error_Handler:
  28              	.LFB321:
   1:Core/Src/main.c **** /* USER CODE BEGIN Header */
   2:Core/Src/main.c **** /**
   3:Core/Src/main.c ****   ******************************************************************************
   4:Core/Src/main.c ****   * @file           : main.c
   5:Core/Src/main.c ****   * @brief          : Main program body
   6:Core/Src/main.c ****   ******************************************************************************
   7:Core/Src/main.c ****   * @attention
   8:Core/Src/main.c ****   *
   9:Core/Src/main.c ****   * Copyright (c) 2023 STMicroelectronics.
  10:Core/Src/main.c ****   * All rights reserved.
  11:Core/Src/main.c ****   *
  12:Core/Src/main.c ****   * This software is licensed under terms that can be found in the LICENSE file
  13:Core/Src/main.c ****   * in the root directory of this software component.
  14:Core/Src/main.c ****   * If no LICENSE file comes with this software, it is provided AS-IS.
  15:Core/Src/main.c ****   *
  16:Core/Src/main.c ****   ******************************************************************************
  17:Core/Src/main.c ****   */
  18:Core/Src/main.c **** /* USER CODE END Header */
  19:Core/Src/main.c **** /* Includes ------------------------------------------------------------------*/
  20:Core/Src/main.c **** #include "main.h"
  21:Core/Src/main.c **** #include "adc.h"
  22:Core/Src/main.c **** #include "dma.h"
  23:Core/Src/main.c **** #include "i2c.h"
  24:Core/Src/main.c **** #include "spi.h"
  25:Core/Src/main.c **** #include "tim.h"
  26:Core/Src/main.c **** #include "usart.h"
  27:Core/Src/main.c **** #include "gpio.h"
  28:Core/Src/main.c **** 
  29:Core/Src/main.c **** /* Private includes ----------------------------------------------------------*/
  30:Core/Src/main.c **** /* USER CODE BEGIN Includes */
ARM GAS  C:\Users\billa\AppData\Local\Temp\ccAkbpv1.s 			page 2


  31:Core/Src/main.c **** 
  32:Core/Src/main.c **** /* USER CODE END Includes */
  33:Core/Src/main.c **** 
  34:Core/Src/main.c **** /* Private typedef -----------------------------------------------------------*/
  35:Core/Src/main.c **** /* USER CODE BEGIN PTD */
  36:Core/Src/main.c **** 
  37:Core/Src/main.c **** /* USER CODE END PTD */
  38:Core/Src/main.c **** 
  39:Core/Src/main.c **** /* Private define ------------------------------------------------------------*/
  40:Core/Src/main.c **** /* USER CODE BEGIN PD */
  41:Core/Src/main.c **** #define RPM_Min 1000
  42:Core/Src/main.c **** #define RPM_Max 1050
  43:Core/Src/main.c **** 
  44:Core/Src/main.c **** /* USER CODE END PD */
  45:Core/Src/main.c **** 
  46:Core/Src/main.c **** /* Private macro -------------------------------------------------------------*/
  47:Core/Src/main.c **** /* USER CODE BEGIN PM */
  48:Core/Src/main.c **** 
  49:Core/Src/main.c **** /* USER CODE END PM */
  50:Core/Src/main.c **** 
  51:Core/Src/main.c **** /* Private variables ---------------------------------------------------------*/
  52:Core/Src/main.c **** 
  53:Core/Src/main.c **** /* USER CODE BEGIN PV */
  54:Core/Src/main.c **** 
  55:Core/Src/main.c **** /* USER CODE END PV */
  56:Core/Src/main.c **** 
  57:Core/Src/main.c **** /* Private function prototypes -----------------------------------------------*/
  58:Core/Src/main.c **** void SystemClock_Config(void);
  59:Core/Src/main.c **** /* USER CODE BEGIN PFP */
  60:Core/Src/main.c **** 
  61:Core/Src/main.c **** /* USER CODE END PFP */
  62:Core/Src/main.c **** 
  63:Core/Src/main.c **** /* Private user code ---------------------------------------------------------*/
  64:Core/Src/main.c **** /* USER CODE BEGIN 0 */
  65:Core/Src/main.c **** 
  66:Core/Src/main.c **** /* USER CODE END 0 */
  67:Core/Src/main.c **** 
  68:Core/Src/main.c **** /**
  69:Core/Src/main.c ****   * @brief  The application entry point.
  70:Core/Src/main.c ****   * @retval int
  71:Core/Src/main.c ****   */
  72:Core/Src/main.c **** int main(void)
  73:Core/Src/main.c **** {
  74:Core/Src/main.c ****   /* USER CODE BEGIN 1 */
  75:Core/Src/main.c **** 
  76:Core/Src/main.c ****   /* USER CODE END 1 */
  77:Core/Src/main.c **** 
  78:Core/Src/main.c ****   /* MCU Configuration--------------------------------------------------------*/
  79:Core/Src/main.c **** 
  80:Core/Src/main.c ****   /* Reset of all peripherals, Initializes the Flash interface and the Systick. */
  81:Core/Src/main.c ****   HAL_Init();
  82:Core/Src/main.c **** 
  83:Core/Src/main.c ****   /* USER CODE BEGIN Init */
  84:Core/Src/main.c **** 
  85:Core/Src/main.c ****   /* USER CODE END Init */
  86:Core/Src/main.c **** 
  87:Core/Src/main.c ****   /* Configure the system clock */
ARM GAS  C:\Users\billa\AppData\Local\Temp\ccAkbpv1.s 			page 3


  88:Core/Src/main.c ****   SystemClock_Config();
  89:Core/Src/main.c **** 
  90:Core/Src/main.c ****   /* USER CODE BEGIN SysInit */
  91:Core/Src/main.c **** 
  92:Core/Src/main.c ****   /* USER CODE END SysInit */
  93:Core/Src/main.c **** 
  94:Core/Src/main.c ****   /* Initialize all configured peripherals */
  95:Core/Src/main.c ****   MX_GPIO_Init();
  96:Core/Src/main.c ****   MX_DMA_Init();
  97:Core/Src/main.c ****   MX_USART2_UART_Init();
  98:Core/Src/main.c ****   MX_SPI1_Init();
  99:Core/Src/main.c ****   MX_ADC1_Init();
 100:Core/Src/main.c ****   MX_I2C3_Init();
 101:Core/Src/main.c ****   MX_TIM1_Init();
 102:Core/Src/main.c ****   MX_TIM2_Init();
 103:Core/Src/main.c ****   /* USER CODE BEGIN 2 */
 104:Core/Src/main.c **** 
 105:Core/Src/main.c ****   HAL_TIM_PWM_Start(&htim1,TIM_CHANNEL_1);
 106:Core/Src/main.c **** 
 107:Core/Src/main.c ****   //Initialisation du moteur
 108:Core/Src/main.c ****   __HAL_TIM_SET_COMPARE(&htim1, TIM_CHANNEL_1, RPM_Min);
 109:Core/Src/main.c ****   HAL_Delay(20); // Attente de 20 ms
 110:Core/Src/main.c **** 
 111:Core/Src/main.c ****   /* USER CODE END 2 */
 112:Core/Src/main.c **** 
 113:Core/Src/main.c ****   /* Infinite loop */
 114:Core/Src/main.c ****   /* USER CODE BEGIN WHILE */
 115:Core/Src/main.c ****   while (1)
 116:Core/Src/main.c ****   {
 117:Core/Src/main.c ****     // for(int i = RPM_Min; i <= RPM_Max; i++){
 118:Core/Src/main.c **** 	  //     __HAL_TIM_SET_COMPARE(&htim1, TIM_CHANNEL_1, i);
 119:Core/Src/main.c **** 		//     HAL_Delay(20); // Attente 20 ms entre chaque étape de progression
 120:Core/Src/main.c **** 	  // }
 121:Core/Src/main.c **** 
 122:Core/Src/main.c **** 	  // HAL_Delay(50); // Maintien en vol pendant 5 secondes
 123:Core/Src/main.c **** 
 124:Core/Src/main.c **** 	  // for(int i = RPM_Max ; i >= RPM_Min; i--){
 125:Core/Src/main.c **** 	  //     __HAL_TIM_SET_COMPARE(&htim1, TIM_CHANNEL_1, i);
 126:Core/Src/main.c **** 		//     HAL_Delay(20); // Attente 20 ms entre chaque étape de progression
 127:Core/Src/main.c **** 	  // }
 128:Core/Src/main.c ****   for(int i = RPM_Min; i <= 1070; i++){
 129:Core/Src/main.c ****    __HAL_TIM_SET_COMPARE(&htim1, TIM_CHANNEL_1, i);
 130:Core/Src/main.c ****    HAL_Delay(20); // Attente 20 ms entre chaque étape de progression
 131:Core/Src/main.c **** 
 132:Core/Src/main.c ****   }
 133:Core/Src/main.c ****     HAL_Delay(2000); 
 134:Core/Src/main.c ****     // Arrête la génération du signal PWM
 135:Core/Src/main.c **** 	  HAL_TIM_PWM_Stop(&htim1, TIM_CHANNEL_1);
 136:Core/Src/main.c **** 
 137:Core/Src/main.c ****     /* USER CODE END WHILE */
 138:Core/Src/main.c **** 
 139:Core/Src/main.c ****     /* USER CODE BEGIN 3 */
 140:Core/Src/main.c ****   }
 141:Core/Src/main.c ****   /* USER CODE END 3 */
 142:Core/Src/main.c **** }
 143:Core/Src/main.c **** 
 144:Core/Src/main.c **** /**
ARM GAS  C:\Users\billa\AppData\Local\Temp\ccAkbpv1.s 			page 4


 145:Core/Src/main.c ****   * @brief System Clock Configuration
 146:Core/Src/main.c ****   * @retval None
 147:Core/Src/main.c ****   */
 148:Core/Src/main.c **** void SystemClock_Config(void)
 149:Core/Src/main.c **** {
 150:Core/Src/main.c ****   RCC_OscInitTypeDef RCC_OscInitStruct = {0};
 151:Core/Src/main.c ****   RCC_ClkInitTypeDef RCC_ClkInitStruct = {0};
 152:Core/Src/main.c **** 
 153:Core/Src/main.c ****   /** Configure the main internal regulator output voltage
 154:Core/Src/main.c ****   */
 155:Core/Src/main.c ****   if (HAL_PWREx_ControlVoltageScaling(PWR_REGULATOR_VOLTAGE_SCALE1) != HAL_OK)
 156:Core/Src/main.c ****   {
 157:Core/Src/main.c ****     Error_Handler();
 158:Core/Src/main.c ****   }
 159:Core/Src/main.c **** 
 160:Core/Src/main.c ****   /** Initializes the RCC Oscillators according to the specified parameters
 161:Core/Src/main.c ****   * in the RCC_OscInitTypeDef structure.
 162:Core/Src/main.c ****   */
 163:Core/Src/main.c ****   RCC_OscInitStruct.OscillatorType = RCC_OSCILLATORTYPE_HSI;
 164:Core/Src/main.c ****   RCC_OscInitStruct.HSIState = RCC_HSI_ON;
 165:Core/Src/main.c ****   RCC_OscInitStruct.HSICalibrationValue = 16;
 166:Core/Src/main.c ****   RCC_OscInitStruct.PLL.PLLState = RCC_PLL_ON;
 167:Core/Src/main.c ****   RCC_OscInitStruct.PLL.PLLSource = RCC_PLLSOURCE_HSI;
 168:Core/Src/main.c ****   RCC_OscInitStruct.PLL.PLLM = 1;
 169:Core/Src/main.c ****   RCC_OscInitStruct.PLL.PLLN = 10;
 170:Core/Src/main.c ****   RCC_OscInitStruct.PLL.PLLQ = RCC_PLLQ_DIV2;
 171:Core/Src/main.c ****   RCC_OscInitStruct.PLL.PLLR = RCC_PLLR_DIV2;
 172:Core/Src/main.c ****   if (HAL_RCC_OscConfig(&RCC_OscInitStruct) != HAL_OK)
 173:Core/Src/main.c ****   {
 174:Core/Src/main.c ****     Error_Handler();
 175:Core/Src/main.c ****   }
 176:Core/Src/main.c **** 
 177:Core/Src/main.c ****   /** Initializes the CPU, AHB and APB buses clocks
 178:Core/Src/main.c ****   */
 179:Core/Src/main.c ****   RCC_ClkInitStruct.ClockType = RCC_CLOCKTYPE_HCLK|RCC_CLOCKTYPE_SYSCLK
 180:Core/Src/main.c ****                               |RCC_CLOCKTYPE_PCLK1|RCC_CLOCKTYPE_PCLK2;
 181:Core/Src/main.c ****   RCC_ClkInitStruct.SYSCLKSource = RCC_SYSCLKSOURCE_PLLCLK;
 182:Core/Src/main.c ****   RCC_ClkInitStruct.AHBCLKDivider = RCC_SYSCLK_DIV1;
 183:Core/Src/main.c ****   RCC_ClkInitStruct.APB1CLKDivider = RCC_HCLK_DIV1;
 184:Core/Src/main.c ****   RCC_ClkInitStruct.APB2CLKDivider = RCC_HCLK_DIV1;
 185:Core/Src/main.c **** 
 186:Core/Src/main.c ****   if (HAL_RCC_ClockConfig(&RCC_ClkInitStruct, FLASH_LATENCY_4) != HAL_OK)
 187:Core/Src/main.c ****   {
 188:Core/Src/main.c ****     Error_Handler();
 189:Core/Src/main.c ****   }
 190:Core/Src/main.c **** }
 191:Core/Src/main.c **** 
 192:Core/Src/main.c **** /* USER CODE BEGIN 4 */
 193:Core/Src/main.c **** 
 194:Core/Src/main.c **** /* USER CODE END 4 */
 195:Core/Src/main.c **** 
 196:Core/Src/main.c **** /**
 197:Core/Src/main.c ****   * @brief  This function is executed in case of error occurrence.
 198:Core/Src/main.c ****   * @retval None
 199:Core/Src/main.c ****   */
 200:Core/Src/main.c **** void Error_Handler(void)
 201:Core/Src/main.c **** {
ARM GAS  C:\Users\billa\AppData\Local\Temp\ccAkbpv1.s 			page 5


  29              		.loc 1 201 1 view -0
  30              		.cfi_startproc
  31              		@ Volatile: function does not return.
  32              		@ args = 0, pretend = 0, frame = 0
  33              		@ frame_needed = 0, uses_anonymous_args = 0
  34              		@ link register save eliminated.
 202:Core/Src/main.c ****   /* USER CODE BEGIN Error_Handler_Debug */
 203:Core/Src/main.c ****   /* User can add his own implementation to report the HAL error return state */
 204:Core/Src/main.c ****   __disable_irq();
  35              		.loc 1 204 3 view .LVU1
  36              	.LBB4:
  37              	.LBI4:
  38              		.file 2 "Drivers/CMSIS/Include/cmsis_gcc.h"
   1:Drivers/CMSIS/Include/cmsis_gcc.h **** /**************************************************************************//**
   2:Drivers/CMSIS/Include/cmsis_gcc.h ****  * @file     cmsis_gcc.h
   3:Drivers/CMSIS/Include/cmsis_gcc.h ****  * @brief    CMSIS compiler GCC header file
   4:Drivers/CMSIS/Include/cmsis_gcc.h ****  * @version  V5.2.0
   5:Drivers/CMSIS/Include/cmsis_gcc.h ****  * @date     08. May 2019
   6:Drivers/CMSIS/Include/cmsis_gcc.h ****  ******************************************************************************/
   7:Drivers/CMSIS/Include/cmsis_gcc.h **** /*
   8:Drivers/CMSIS/Include/cmsis_gcc.h ****  * Copyright (c) 2009-2019 Arm Limited. All rights reserved.
   9:Drivers/CMSIS/Include/cmsis_gcc.h ****  *
  10:Drivers/CMSIS/Include/cmsis_gcc.h ****  * SPDX-License-Identifier: Apache-2.0
  11:Drivers/CMSIS/Include/cmsis_gcc.h ****  *
  12:Drivers/CMSIS/Include/cmsis_gcc.h ****  * Licensed under the Apache License, Version 2.0 (the License); you may
  13:Drivers/CMSIS/Include/cmsis_gcc.h ****  * not use this file except in compliance with the License.
  14:Drivers/CMSIS/Include/cmsis_gcc.h ****  * You may obtain a copy of the License at
  15:Drivers/CMSIS/Include/cmsis_gcc.h ****  *
  16:Drivers/CMSIS/Include/cmsis_gcc.h ****  * www.apache.org/licenses/LICENSE-2.0
  17:Drivers/CMSIS/Include/cmsis_gcc.h ****  *
  18:Drivers/CMSIS/Include/cmsis_gcc.h ****  * Unless required by applicable law or agreed to in writing, software
  19:Drivers/CMSIS/Include/cmsis_gcc.h ****  * distributed under the License is distributed on an AS IS BASIS, WITHOUT
  20:Drivers/CMSIS/Include/cmsis_gcc.h ****  * WARRANTIES OR CONDITIONS OF ANY KIND, either express or implied.
  21:Drivers/CMSIS/Include/cmsis_gcc.h ****  * See the License for the specific language governing permissions and
  22:Drivers/CMSIS/Include/cmsis_gcc.h ****  * limitations under the License.
  23:Drivers/CMSIS/Include/cmsis_gcc.h ****  */
  24:Drivers/CMSIS/Include/cmsis_gcc.h **** 
  25:Drivers/CMSIS/Include/cmsis_gcc.h **** #ifndef __CMSIS_GCC_H
  26:Drivers/CMSIS/Include/cmsis_gcc.h **** #define __CMSIS_GCC_H
  27:Drivers/CMSIS/Include/cmsis_gcc.h **** 
  28:Drivers/CMSIS/Include/cmsis_gcc.h **** /* ignore some GCC warnings */
  29:Drivers/CMSIS/Include/cmsis_gcc.h **** #pragma GCC diagnostic push
  30:Drivers/CMSIS/Include/cmsis_gcc.h **** #pragma GCC diagnostic ignored "-Wsign-conversion"
  31:Drivers/CMSIS/Include/cmsis_gcc.h **** #pragma GCC diagnostic ignored "-Wconversion"
  32:Drivers/CMSIS/Include/cmsis_gcc.h **** #pragma GCC diagnostic ignored "-Wunused-parameter"
  33:Drivers/CMSIS/Include/cmsis_gcc.h **** 
  34:Drivers/CMSIS/Include/cmsis_gcc.h **** /* Fallback for __has_builtin */
  35:Drivers/CMSIS/Include/cmsis_gcc.h **** #ifndef __has_builtin
  36:Drivers/CMSIS/Include/cmsis_gcc.h ****   #define __has_builtin(x) (0)
  37:Drivers/CMSIS/Include/cmsis_gcc.h **** #endif
  38:Drivers/CMSIS/Include/cmsis_gcc.h **** 
  39:Drivers/CMSIS/Include/cmsis_gcc.h **** /* CMSIS compiler specific defines */
  40:Drivers/CMSIS/Include/cmsis_gcc.h **** #ifndef   __ASM
  41:Drivers/CMSIS/Include/cmsis_gcc.h ****   #define __ASM                                  __asm
  42:Drivers/CMSIS/Include/cmsis_gcc.h **** #endif
  43:Drivers/CMSIS/Include/cmsis_gcc.h **** #ifndef   __INLINE
  44:Drivers/CMSIS/Include/cmsis_gcc.h ****   #define __INLINE                               inline
ARM GAS  C:\Users\billa\AppData\Local\Temp\ccAkbpv1.s 			page 6


  45:Drivers/CMSIS/Include/cmsis_gcc.h **** #endif
  46:Drivers/CMSIS/Include/cmsis_gcc.h **** #ifndef   __STATIC_INLINE
  47:Drivers/CMSIS/Include/cmsis_gcc.h ****   #define __STATIC_INLINE                        static inline
  48:Drivers/CMSIS/Include/cmsis_gcc.h **** #endif
  49:Drivers/CMSIS/Include/cmsis_gcc.h **** #ifndef   __STATIC_FORCEINLINE                 
  50:Drivers/CMSIS/Include/cmsis_gcc.h ****   #define __STATIC_FORCEINLINE                   __attribute__((always_inline)) static inline
  51:Drivers/CMSIS/Include/cmsis_gcc.h **** #endif                                           
  52:Drivers/CMSIS/Include/cmsis_gcc.h **** #ifndef   __NO_RETURN
  53:Drivers/CMSIS/Include/cmsis_gcc.h ****   #define __NO_RETURN                            __attribute__((__noreturn__))
  54:Drivers/CMSIS/Include/cmsis_gcc.h **** #endif
  55:Drivers/CMSIS/Include/cmsis_gcc.h **** #ifndef   __USED
  56:Drivers/CMSIS/Include/cmsis_gcc.h ****   #define __USED                                 __attribute__((used))
  57:Drivers/CMSIS/Include/cmsis_gcc.h **** #endif
  58:Drivers/CMSIS/Include/cmsis_gcc.h **** #ifndef   __WEAK
  59:Drivers/CMSIS/Include/cmsis_gcc.h ****   #define __WEAK                                 __attribute__((weak))
  60:Drivers/CMSIS/Include/cmsis_gcc.h **** #endif
  61:Drivers/CMSIS/Include/cmsis_gcc.h **** #ifndef   __PACKED
  62:Drivers/CMSIS/Include/cmsis_gcc.h ****   #define __PACKED                               __attribute__((packed, aligned(1)))
  63:Drivers/CMSIS/Include/cmsis_gcc.h **** #endif
  64:Drivers/CMSIS/Include/cmsis_gcc.h **** #ifndef   __PACKED_STRUCT
  65:Drivers/CMSIS/Include/cmsis_gcc.h ****   #define __PACKED_STRUCT                        struct __attribute__((packed, aligned(1)))
  66:Drivers/CMSIS/Include/cmsis_gcc.h **** #endif
  67:Drivers/CMSIS/Include/cmsis_gcc.h **** #ifndef   __PACKED_UNION
  68:Drivers/CMSIS/Include/cmsis_gcc.h ****   #define __PACKED_UNION                         union __attribute__((packed, aligned(1)))
  69:Drivers/CMSIS/Include/cmsis_gcc.h **** #endif
  70:Drivers/CMSIS/Include/cmsis_gcc.h **** #ifndef   __UNALIGNED_UINT32        /* deprecated */
  71:Drivers/CMSIS/Include/cmsis_gcc.h ****   #pragma GCC diagnostic push
  72:Drivers/CMSIS/Include/cmsis_gcc.h ****   #pragma GCC diagnostic ignored "-Wpacked"
  73:Drivers/CMSIS/Include/cmsis_gcc.h ****   #pragma GCC diagnostic ignored "-Wattributes"
  74:Drivers/CMSIS/Include/cmsis_gcc.h ****   struct __attribute__((packed)) T_UINT32 { uint32_t v; };
  75:Drivers/CMSIS/Include/cmsis_gcc.h ****   #pragma GCC diagnostic pop
  76:Drivers/CMSIS/Include/cmsis_gcc.h ****   #define __UNALIGNED_UINT32(x)                  (((struct T_UINT32 *)(x))->v)
  77:Drivers/CMSIS/Include/cmsis_gcc.h **** #endif
  78:Drivers/CMSIS/Include/cmsis_gcc.h **** #ifndef   __UNALIGNED_UINT16_WRITE
  79:Drivers/CMSIS/Include/cmsis_gcc.h ****   #pragma GCC diagnostic push
  80:Drivers/CMSIS/Include/cmsis_gcc.h ****   #pragma GCC diagnostic ignored "-Wpacked"
  81:Drivers/CMSIS/Include/cmsis_gcc.h ****   #pragma GCC diagnostic ignored "-Wattributes"
  82:Drivers/CMSIS/Include/cmsis_gcc.h ****   __PACKED_STRUCT T_UINT16_WRITE { uint16_t v; };
  83:Drivers/CMSIS/Include/cmsis_gcc.h ****   #pragma GCC diagnostic pop
  84:Drivers/CMSIS/Include/cmsis_gcc.h ****   #define __UNALIGNED_UINT16_WRITE(addr, val)    (void)((((struct T_UINT16_WRITE *)(void *)(addr))-
  85:Drivers/CMSIS/Include/cmsis_gcc.h **** #endif
  86:Drivers/CMSIS/Include/cmsis_gcc.h **** #ifndef   __UNALIGNED_UINT16_READ
  87:Drivers/CMSIS/Include/cmsis_gcc.h ****   #pragma GCC diagnostic push
  88:Drivers/CMSIS/Include/cmsis_gcc.h ****   #pragma GCC diagnostic ignored "-Wpacked"
  89:Drivers/CMSIS/Include/cmsis_gcc.h ****   #pragma GCC diagnostic ignored "-Wattributes"
  90:Drivers/CMSIS/Include/cmsis_gcc.h ****   __PACKED_STRUCT T_UINT16_READ { uint16_t v; };
  91:Drivers/CMSIS/Include/cmsis_gcc.h ****   #pragma GCC diagnostic pop
  92:Drivers/CMSIS/Include/cmsis_gcc.h ****   #define __UNALIGNED_UINT16_READ(addr)          (((const struct T_UINT16_READ *)(const void *)(add
  93:Drivers/CMSIS/Include/cmsis_gcc.h **** #endif
  94:Drivers/CMSIS/Include/cmsis_gcc.h **** #ifndef   __UNALIGNED_UINT32_WRITE
  95:Drivers/CMSIS/Include/cmsis_gcc.h ****   #pragma GCC diagnostic push
  96:Drivers/CMSIS/Include/cmsis_gcc.h ****   #pragma GCC diagnostic ignored "-Wpacked"
  97:Drivers/CMSIS/Include/cmsis_gcc.h ****   #pragma GCC diagnostic ignored "-Wattributes"
  98:Drivers/CMSIS/Include/cmsis_gcc.h ****   __PACKED_STRUCT T_UINT32_WRITE { uint32_t v; };
  99:Drivers/CMSIS/Include/cmsis_gcc.h ****   #pragma GCC diagnostic pop
 100:Drivers/CMSIS/Include/cmsis_gcc.h ****   #define __UNALIGNED_UINT32_WRITE(addr, val)    (void)((((struct T_UINT32_WRITE *)(void *)(addr))-
 101:Drivers/CMSIS/Include/cmsis_gcc.h **** #endif
ARM GAS  C:\Users\billa\AppData\Local\Temp\ccAkbpv1.s 			page 7


 102:Drivers/CMSIS/Include/cmsis_gcc.h **** #ifndef   __UNALIGNED_UINT32_READ
 103:Drivers/CMSIS/Include/cmsis_gcc.h ****   #pragma GCC diagnostic push
 104:Drivers/CMSIS/Include/cmsis_gcc.h ****   #pragma GCC diagnostic ignored "-Wpacked"
 105:Drivers/CMSIS/Include/cmsis_gcc.h ****   #pragma GCC diagnostic ignored "-Wattributes"
 106:Drivers/CMSIS/Include/cmsis_gcc.h ****   __PACKED_STRUCT T_UINT32_READ { uint32_t v; };
 107:Drivers/CMSIS/Include/cmsis_gcc.h ****   #pragma GCC diagnostic pop
 108:Drivers/CMSIS/Include/cmsis_gcc.h ****   #define __UNALIGNED_UINT32_READ(addr)          (((const struct T_UINT32_READ *)(const void *)(add
 109:Drivers/CMSIS/Include/cmsis_gcc.h **** #endif
 110:Drivers/CMSIS/Include/cmsis_gcc.h **** #ifndef   __ALIGNED
 111:Drivers/CMSIS/Include/cmsis_gcc.h ****   #define __ALIGNED(x)                           __attribute__((aligned(x)))
 112:Drivers/CMSIS/Include/cmsis_gcc.h **** #endif
 113:Drivers/CMSIS/Include/cmsis_gcc.h **** #ifndef   __RESTRICT
 114:Drivers/CMSIS/Include/cmsis_gcc.h ****   #define __RESTRICT                             __restrict
 115:Drivers/CMSIS/Include/cmsis_gcc.h **** #endif
 116:Drivers/CMSIS/Include/cmsis_gcc.h **** #ifndef   __COMPILER_BARRIER
 117:Drivers/CMSIS/Include/cmsis_gcc.h ****   #define __COMPILER_BARRIER()                   __ASM volatile("":::"memory")
 118:Drivers/CMSIS/Include/cmsis_gcc.h **** #endif
 119:Drivers/CMSIS/Include/cmsis_gcc.h **** 
 120:Drivers/CMSIS/Include/cmsis_gcc.h **** /* #########################  Startup and Lowlevel Init  ######################## */
 121:Drivers/CMSIS/Include/cmsis_gcc.h **** 
 122:Drivers/CMSIS/Include/cmsis_gcc.h **** #ifndef __PROGRAM_START
 123:Drivers/CMSIS/Include/cmsis_gcc.h **** 
 124:Drivers/CMSIS/Include/cmsis_gcc.h **** /**
 125:Drivers/CMSIS/Include/cmsis_gcc.h ****   \brief   Initializes data and bss sections
 126:Drivers/CMSIS/Include/cmsis_gcc.h ****   \details This default implementations initialized all data and additional bss
 127:Drivers/CMSIS/Include/cmsis_gcc.h ****            sections relying on .copy.table and .zero.table specified properly
 128:Drivers/CMSIS/Include/cmsis_gcc.h ****            in the used linker script.
 129:Drivers/CMSIS/Include/cmsis_gcc.h ****   
 130:Drivers/CMSIS/Include/cmsis_gcc.h ****  */
 131:Drivers/CMSIS/Include/cmsis_gcc.h **** __STATIC_FORCEINLINE __NO_RETURN void __cmsis_start(void)
 132:Drivers/CMSIS/Include/cmsis_gcc.h **** {
 133:Drivers/CMSIS/Include/cmsis_gcc.h ****   extern void _start(void) __NO_RETURN;
 134:Drivers/CMSIS/Include/cmsis_gcc.h ****   
 135:Drivers/CMSIS/Include/cmsis_gcc.h ****   typedef struct {
 136:Drivers/CMSIS/Include/cmsis_gcc.h ****     uint32_t const* src;
 137:Drivers/CMSIS/Include/cmsis_gcc.h ****     uint32_t* dest;
 138:Drivers/CMSIS/Include/cmsis_gcc.h ****     uint32_t  wlen;
 139:Drivers/CMSIS/Include/cmsis_gcc.h ****   } __copy_table_t;
 140:Drivers/CMSIS/Include/cmsis_gcc.h ****   
 141:Drivers/CMSIS/Include/cmsis_gcc.h ****   typedef struct {
 142:Drivers/CMSIS/Include/cmsis_gcc.h ****     uint32_t* dest;
 143:Drivers/CMSIS/Include/cmsis_gcc.h ****     uint32_t  wlen;
 144:Drivers/CMSIS/Include/cmsis_gcc.h ****   } __zero_table_t;
 145:Drivers/CMSIS/Include/cmsis_gcc.h ****   
 146:Drivers/CMSIS/Include/cmsis_gcc.h ****   extern const __copy_table_t __copy_table_start__;
 147:Drivers/CMSIS/Include/cmsis_gcc.h ****   extern const __copy_table_t __copy_table_end__;
 148:Drivers/CMSIS/Include/cmsis_gcc.h ****   extern const __zero_table_t __zero_table_start__;
 149:Drivers/CMSIS/Include/cmsis_gcc.h ****   extern const __zero_table_t __zero_table_end__;
 150:Drivers/CMSIS/Include/cmsis_gcc.h **** 
 151:Drivers/CMSIS/Include/cmsis_gcc.h ****   for (__copy_table_t const* pTable = &__copy_table_start__; pTable < &__copy_table_end__; ++pTable
 152:Drivers/CMSIS/Include/cmsis_gcc.h ****     for(uint32_t i=0u; i<pTable->wlen; ++i) {
 153:Drivers/CMSIS/Include/cmsis_gcc.h ****       pTable->dest[i] = pTable->src[i];
 154:Drivers/CMSIS/Include/cmsis_gcc.h ****     }
 155:Drivers/CMSIS/Include/cmsis_gcc.h ****   }
 156:Drivers/CMSIS/Include/cmsis_gcc.h ****  
 157:Drivers/CMSIS/Include/cmsis_gcc.h ****   for (__zero_table_t const* pTable = &__zero_table_start__; pTable < &__zero_table_end__; ++pTable
 158:Drivers/CMSIS/Include/cmsis_gcc.h ****     for(uint32_t i=0u; i<pTable->wlen; ++i) {
ARM GAS  C:\Users\billa\AppData\Local\Temp\ccAkbpv1.s 			page 8


 159:Drivers/CMSIS/Include/cmsis_gcc.h ****       pTable->dest[i] = 0u;
 160:Drivers/CMSIS/Include/cmsis_gcc.h ****     }
 161:Drivers/CMSIS/Include/cmsis_gcc.h ****   }
 162:Drivers/CMSIS/Include/cmsis_gcc.h ****  
 163:Drivers/CMSIS/Include/cmsis_gcc.h ****   _start();
 164:Drivers/CMSIS/Include/cmsis_gcc.h **** }
 165:Drivers/CMSIS/Include/cmsis_gcc.h ****   
 166:Drivers/CMSIS/Include/cmsis_gcc.h **** #define __PROGRAM_START           __cmsis_start
 167:Drivers/CMSIS/Include/cmsis_gcc.h **** #endif
 168:Drivers/CMSIS/Include/cmsis_gcc.h **** 
 169:Drivers/CMSIS/Include/cmsis_gcc.h **** #ifndef __INITIAL_SP
 170:Drivers/CMSIS/Include/cmsis_gcc.h **** #define __INITIAL_SP              __StackTop
 171:Drivers/CMSIS/Include/cmsis_gcc.h **** #endif
 172:Drivers/CMSIS/Include/cmsis_gcc.h **** 
 173:Drivers/CMSIS/Include/cmsis_gcc.h **** #ifndef __STACK_LIMIT
 174:Drivers/CMSIS/Include/cmsis_gcc.h **** #define __STACK_LIMIT             __StackLimit
 175:Drivers/CMSIS/Include/cmsis_gcc.h **** #endif
 176:Drivers/CMSIS/Include/cmsis_gcc.h **** 
 177:Drivers/CMSIS/Include/cmsis_gcc.h **** #ifndef __VECTOR_TABLE
 178:Drivers/CMSIS/Include/cmsis_gcc.h **** #define __VECTOR_TABLE            __Vectors
 179:Drivers/CMSIS/Include/cmsis_gcc.h **** #endif
 180:Drivers/CMSIS/Include/cmsis_gcc.h **** 
 181:Drivers/CMSIS/Include/cmsis_gcc.h **** #ifndef __VECTOR_TABLE_ATTRIBUTE
 182:Drivers/CMSIS/Include/cmsis_gcc.h **** #define __VECTOR_TABLE_ATTRIBUTE  __attribute((used, section(".vectors")))
 183:Drivers/CMSIS/Include/cmsis_gcc.h **** #endif
 184:Drivers/CMSIS/Include/cmsis_gcc.h **** 
 185:Drivers/CMSIS/Include/cmsis_gcc.h **** /* ###########################  Core Function Access  ########################### */
 186:Drivers/CMSIS/Include/cmsis_gcc.h **** /** \ingroup  CMSIS_Core_FunctionInterface
 187:Drivers/CMSIS/Include/cmsis_gcc.h ****     \defgroup CMSIS_Core_RegAccFunctions CMSIS Core Register Access Functions
 188:Drivers/CMSIS/Include/cmsis_gcc.h ****   @{
 189:Drivers/CMSIS/Include/cmsis_gcc.h ****  */
 190:Drivers/CMSIS/Include/cmsis_gcc.h **** 
 191:Drivers/CMSIS/Include/cmsis_gcc.h **** /**
 192:Drivers/CMSIS/Include/cmsis_gcc.h ****   \brief   Enable IRQ Interrupts
 193:Drivers/CMSIS/Include/cmsis_gcc.h ****   \details Enables IRQ interrupts by clearing the I-bit in the CPSR.
 194:Drivers/CMSIS/Include/cmsis_gcc.h ****            Can only be executed in Privileged modes.
 195:Drivers/CMSIS/Include/cmsis_gcc.h ****  */
 196:Drivers/CMSIS/Include/cmsis_gcc.h **** __STATIC_FORCEINLINE void __enable_irq(void)
 197:Drivers/CMSIS/Include/cmsis_gcc.h **** {
 198:Drivers/CMSIS/Include/cmsis_gcc.h ****   __ASM volatile ("cpsie i" : : : "memory");
 199:Drivers/CMSIS/Include/cmsis_gcc.h **** }
 200:Drivers/CMSIS/Include/cmsis_gcc.h **** 
 201:Drivers/CMSIS/Include/cmsis_gcc.h **** 
 202:Drivers/CMSIS/Include/cmsis_gcc.h **** /**
 203:Drivers/CMSIS/Include/cmsis_gcc.h ****   \brief   Disable IRQ Interrupts
 204:Drivers/CMSIS/Include/cmsis_gcc.h ****   \details Disables IRQ interrupts by setting the I-bit in the CPSR.
 205:Drivers/CMSIS/Include/cmsis_gcc.h ****            Can only be executed in Privileged modes.
 206:Drivers/CMSIS/Include/cmsis_gcc.h ****  */
 207:Drivers/CMSIS/Include/cmsis_gcc.h **** __STATIC_FORCEINLINE void __disable_irq(void)
  39              		.loc 2 207 27 view .LVU2
  40              	.LBB5:
 208:Drivers/CMSIS/Include/cmsis_gcc.h **** {
 209:Drivers/CMSIS/Include/cmsis_gcc.h ****   __ASM volatile ("cpsid i" : : : "memory");
  41              		.loc 2 209 3 view .LVU3
  42              		.syntax unified
  43              	@ 209 "Drivers/CMSIS/Include/cmsis_gcc.h" 1
  44 0000 72B6     		cpsid i
ARM GAS  C:\Users\billa\AppData\Local\Temp\ccAkbpv1.s 			page 9


  45              	@ 0 "" 2
  46              		.thumb
  47              		.syntax unified
  48              	.L2:
  49              	.LBE5:
  50              	.LBE4:
 205:Core/Src/main.c ****   while (1)
  51              		.loc 1 205 3 discriminator 1 view .LVU4
 206:Core/Src/main.c ****   {
 207:Core/Src/main.c ****   }
  52              		.loc 1 207 3 discriminator 1 view .LVU5
 205:Core/Src/main.c ****   while (1)
  53              		.loc 1 205 9 discriminator 1 view .LVU6
  54 0002 FEE7     		b	.L2
  55              		.cfi_endproc
  56              	.LFE321:
  58              		.section	.text.SystemClock_Config,"ax",%progbits
  59              		.align	1
  60              		.global	SystemClock_Config
  61              		.syntax unified
  62              		.thumb
  63              		.thumb_func
  65              	SystemClock_Config:
  66              	.LFB320:
 149:Core/Src/main.c ****   RCC_OscInitTypeDef RCC_OscInitStruct = {0};
  67              		.loc 1 149 1 view -0
  68              		.cfi_startproc
  69              		@ args = 0, pretend = 0, frame = 88
  70              		@ frame_needed = 0, uses_anonymous_args = 0
  71 0000 00B5     		push	{lr}
  72              		.cfi_def_cfa_offset 4
  73              		.cfi_offset 14, -4
  74 0002 97B0     		sub	sp, sp, #92
  75              		.cfi_def_cfa_offset 96
 150:Core/Src/main.c ****   RCC_ClkInitTypeDef RCC_ClkInitStruct = {0};
  76              		.loc 1 150 3 view .LVU8
 150:Core/Src/main.c ****   RCC_ClkInitTypeDef RCC_ClkInitStruct = {0};
  77              		.loc 1 150 22 is_stmt 0 view .LVU9
  78 0004 4422     		movs	r2, #68
  79 0006 0021     		movs	r1, #0
  80 0008 05A8     		add	r0, sp, #20
  81 000a FFF7FEFF 		bl	memset
  82              	.LVL0:
 151:Core/Src/main.c **** 
  83              		.loc 1 151 3 is_stmt 1 view .LVU10
 151:Core/Src/main.c **** 
  84              		.loc 1 151 22 is_stmt 0 view .LVU11
  85 000e 0023     		movs	r3, #0
  86 0010 0093     		str	r3, [sp]
  87 0012 0193     		str	r3, [sp, #4]
  88 0014 0293     		str	r3, [sp, #8]
  89 0016 0393     		str	r3, [sp, #12]
  90 0018 0493     		str	r3, [sp, #16]
 155:Core/Src/main.c ****   {
  91              		.loc 1 155 3 is_stmt 1 view .LVU12
 155:Core/Src/main.c ****   {
  92              		.loc 1 155 7 is_stmt 0 view .LVU13
ARM GAS  C:\Users\billa\AppData\Local\Temp\ccAkbpv1.s 			page 10


  93 001a 4FF40070 		mov	r0, #512
  94 001e FFF7FEFF 		bl	HAL_PWREx_ControlVoltageScaling
  95              	.LVL1:
 155:Core/Src/main.c ****   {
  96              		.loc 1 155 6 view .LVU14
  97 0022 10BB     		cbnz	r0, .L8
 163:Core/Src/main.c ****   RCC_OscInitStruct.HSIState = RCC_HSI_ON;
  98              		.loc 1 163 3 is_stmt 1 view .LVU15
 163:Core/Src/main.c ****   RCC_OscInitStruct.HSIState = RCC_HSI_ON;
  99              		.loc 1 163 36 is_stmt 0 view .LVU16
 100 0024 0223     		movs	r3, #2
 101 0026 0593     		str	r3, [sp, #20]
 164:Core/Src/main.c ****   RCC_OscInitStruct.HSICalibrationValue = 16;
 102              		.loc 1 164 3 is_stmt 1 view .LVU17
 164:Core/Src/main.c ****   RCC_OscInitStruct.HSICalibrationValue = 16;
 103              		.loc 1 164 30 is_stmt 0 view .LVU18
 104 0028 4FF48072 		mov	r2, #256
 105 002c 0892     		str	r2, [sp, #32]
 165:Core/Src/main.c ****   RCC_OscInitStruct.PLL.PLLState = RCC_PLL_ON;
 106              		.loc 1 165 3 is_stmt 1 view .LVU19
 165:Core/Src/main.c ****   RCC_OscInitStruct.PLL.PLLState = RCC_PLL_ON;
 107              		.loc 1 165 41 is_stmt 0 view .LVU20
 108 002e 1022     		movs	r2, #16
 109 0030 0992     		str	r2, [sp, #36]
 166:Core/Src/main.c ****   RCC_OscInitStruct.PLL.PLLSource = RCC_PLLSOURCE_HSI;
 110              		.loc 1 166 3 is_stmt 1 view .LVU21
 166:Core/Src/main.c ****   RCC_OscInitStruct.PLL.PLLSource = RCC_PLLSOURCE_HSI;
 111              		.loc 1 166 34 is_stmt 0 view .LVU22
 112 0032 1093     		str	r3, [sp, #64]
 167:Core/Src/main.c ****   RCC_OscInitStruct.PLL.PLLM = 1;
 113              		.loc 1 167 3 is_stmt 1 view .LVU23
 167:Core/Src/main.c ****   RCC_OscInitStruct.PLL.PLLM = 1;
 114              		.loc 1 167 35 is_stmt 0 view .LVU24
 115 0034 1193     		str	r3, [sp, #68]
 168:Core/Src/main.c ****   RCC_OscInitStruct.PLL.PLLN = 10;
 116              		.loc 1 168 3 is_stmt 1 view .LVU25
 168:Core/Src/main.c ****   RCC_OscInitStruct.PLL.PLLN = 10;
 117              		.loc 1 168 30 is_stmt 0 view .LVU26
 118 0036 0122     		movs	r2, #1
 119 0038 1292     		str	r2, [sp, #72]
 169:Core/Src/main.c ****   RCC_OscInitStruct.PLL.PLLQ = RCC_PLLQ_DIV2;
 120              		.loc 1 169 3 is_stmt 1 view .LVU27
 169:Core/Src/main.c ****   RCC_OscInitStruct.PLL.PLLQ = RCC_PLLQ_DIV2;
 121              		.loc 1 169 30 is_stmt 0 view .LVU28
 122 003a 0A22     		movs	r2, #10
 123 003c 1392     		str	r2, [sp, #76]
 170:Core/Src/main.c ****   RCC_OscInitStruct.PLL.PLLR = RCC_PLLR_DIV2;
 124              		.loc 1 170 3 is_stmt 1 view .LVU29
 170:Core/Src/main.c ****   RCC_OscInitStruct.PLL.PLLR = RCC_PLLR_DIV2;
 125              		.loc 1 170 30 is_stmt 0 view .LVU30
 126 003e 1493     		str	r3, [sp, #80]
 171:Core/Src/main.c ****   if (HAL_RCC_OscConfig(&RCC_OscInitStruct) != HAL_OK)
 127              		.loc 1 171 3 is_stmt 1 view .LVU31
 171:Core/Src/main.c ****   if (HAL_RCC_OscConfig(&RCC_OscInitStruct) != HAL_OK)
 128              		.loc 1 171 30 is_stmt 0 view .LVU32
 129 0040 1593     		str	r3, [sp, #84]
 172:Core/Src/main.c ****   {
ARM GAS  C:\Users\billa\AppData\Local\Temp\ccAkbpv1.s 			page 11


 130              		.loc 1 172 3 is_stmt 1 view .LVU33
 172:Core/Src/main.c ****   {
 131              		.loc 1 172 7 is_stmt 0 view .LVU34
 132 0042 05A8     		add	r0, sp, #20
 133 0044 FFF7FEFF 		bl	HAL_RCC_OscConfig
 134              	.LVL2:
 172:Core/Src/main.c ****   {
 135              		.loc 1 172 6 view .LVU35
 136 0048 88B9     		cbnz	r0, .L9
 179:Core/Src/main.c ****                               |RCC_CLOCKTYPE_PCLK1|RCC_CLOCKTYPE_PCLK2;
 137              		.loc 1 179 3 is_stmt 1 view .LVU36
 179:Core/Src/main.c ****                               |RCC_CLOCKTYPE_PCLK1|RCC_CLOCKTYPE_PCLK2;
 138              		.loc 1 179 31 is_stmt 0 view .LVU37
 139 004a 0F23     		movs	r3, #15
 140 004c 0093     		str	r3, [sp]
 181:Core/Src/main.c ****   RCC_ClkInitStruct.AHBCLKDivider = RCC_SYSCLK_DIV1;
 141              		.loc 1 181 3 is_stmt 1 view .LVU38
 181:Core/Src/main.c ****   RCC_ClkInitStruct.AHBCLKDivider = RCC_SYSCLK_DIV1;
 142              		.loc 1 181 34 is_stmt 0 view .LVU39
 143 004e 0323     		movs	r3, #3
 144 0050 0193     		str	r3, [sp, #4]
 182:Core/Src/main.c ****   RCC_ClkInitStruct.APB1CLKDivider = RCC_HCLK_DIV1;
 145              		.loc 1 182 3 is_stmt 1 view .LVU40
 182:Core/Src/main.c ****   RCC_ClkInitStruct.APB1CLKDivider = RCC_HCLK_DIV1;
 146              		.loc 1 182 35 is_stmt 0 view .LVU41
 147 0052 0023     		movs	r3, #0
 148 0054 0293     		str	r3, [sp, #8]
 183:Core/Src/main.c ****   RCC_ClkInitStruct.APB2CLKDivider = RCC_HCLK_DIV1;
 149              		.loc 1 183 3 is_stmt 1 view .LVU42
 183:Core/Src/main.c ****   RCC_ClkInitStruct.APB2CLKDivider = RCC_HCLK_DIV1;
 150              		.loc 1 183 36 is_stmt 0 view .LVU43
 151 0056 0393     		str	r3, [sp, #12]
 184:Core/Src/main.c **** 
 152              		.loc 1 184 3 is_stmt 1 view .LVU44
 184:Core/Src/main.c **** 
 153              		.loc 1 184 36 is_stmt 0 view .LVU45
 154 0058 0493     		str	r3, [sp, #16]
 186:Core/Src/main.c ****   {
 155              		.loc 1 186 3 is_stmt 1 view .LVU46
 186:Core/Src/main.c ****   {
 156              		.loc 1 186 7 is_stmt 0 view .LVU47
 157 005a 0421     		movs	r1, #4
 158 005c 6846     		mov	r0, sp
 159 005e FFF7FEFF 		bl	HAL_RCC_ClockConfig
 160              	.LVL3:
 186:Core/Src/main.c ****   {
 161              		.loc 1 186 6 view .LVU48
 162 0062 30B9     		cbnz	r0, .L10
 190:Core/Src/main.c **** 
 163              		.loc 1 190 1 view .LVU49
 164 0064 17B0     		add	sp, sp, #92
 165              		.cfi_remember_state
 166              		.cfi_def_cfa_offset 4
 167              		@ sp needed
 168 0066 5DF804FB 		ldr	pc, [sp], #4
 169              	.L8:
 170              		.cfi_restore_state
ARM GAS  C:\Users\billa\AppData\Local\Temp\ccAkbpv1.s 			page 12


 157:Core/Src/main.c ****   }
 171              		.loc 1 157 5 is_stmt 1 view .LVU50
 172 006a FFF7FEFF 		bl	Error_Handler
 173              	.LVL4:
 174              	.L9:
 174:Core/Src/main.c ****   }
 175              		.loc 1 174 5 view .LVU51
 176 006e FFF7FEFF 		bl	Error_Handler
 177              	.LVL5:
 178              	.L10:
 188:Core/Src/main.c ****   }
 179              		.loc 1 188 5 view .LVU52
 180 0072 FFF7FEFF 		bl	Error_Handler
 181              	.LVL6:
 182              		.cfi_endproc
 183              	.LFE320:
 185              		.section	.text.main,"ax",%progbits
 186              		.align	1
 187              		.global	main
 188              		.syntax unified
 189              		.thumb
 190              		.thumb_func
 192              	main:
 193              	.LFB319:
  73:Core/Src/main.c ****   /* USER CODE BEGIN 1 */
 194              		.loc 1 73 1 view -0
 195              		.cfi_startproc
 196              		@ args = 0, pretend = 0, frame = 0
 197              		@ frame_needed = 0, uses_anonymous_args = 0
 198 0000 10B5     		push	{r4, lr}
 199              		.cfi_def_cfa_offset 8
 200              		.cfi_offset 4, -8
 201              		.cfi_offset 14, -4
  81:Core/Src/main.c **** 
 202              		.loc 1 81 3 view .LVU54
 203 0002 FFF7FEFF 		bl	HAL_Init
 204              	.LVL7:
  88:Core/Src/main.c **** 
 205              		.loc 1 88 3 view .LVU55
 206 0006 FFF7FEFF 		bl	SystemClock_Config
 207              	.LVL8:
  95:Core/Src/main.c ****   MX_DMA_Init();
 208              		.loc 1 95 3 view .LVU56
 209 000a FFF7FEFF 		bl	MX_GPIO_Init
 210              	.LVL9:
  96:Core/Src/main.c ****   MX_USART2_UART_Init();
 211              		.loc 1 96 3 view .LVU57
 212 000e FFF7FEFF 		bl	MX_DMA_Init
 213              	.LVL10:
  97:Core/Src/main.c ****   MX_SPI1_Init();
 214              		.loc 1 97 3 view .LVU58
 215 0012 FFF7FEFF 		bl	MX_USART2_UART_Init
 216              	.LVL11:
  98:Core/Src/main.c ****   MX_ADC1_Init();
 217              		.loc 1 98 3 view .LVU59
 218 0016 FFF7FEFF 		bl	MX_SPI1_Init
 219              	.LVL12:
ARM GAS  C:\Users\billa\AppData\Local\Temp\ccAkbpv1.s 			page 13


  99:Core/Src/main.c ****   MX_I2C3_Init();
 220              		.loc 1 99 3 view .LVU60
 221 001a FFF7FEFF 		bl	MX_ADC1_Init
 222              	.LVL13:
 100:Core/Src/main.c ****   MX_TIM1_Init();
 223              		.loc 1 100 3 view .LVU61
 224 001e FFF7FEFF 		bl	MX_I2C3_Init
 225              	.LVL14:
 101:Core/Src/main.c ****   MX_TIM2_Init();
 226              		.loc 1 101 3 view .LVU62
 227 0022 FFF7FEFF 		bl	MX_TIM1_Init
 228              	.LVL15:
 102:Core/Src/main.c ****   /* USER CODE BEGIN 2 */
 229              		.loc 1 102 3 view .LVU63
 230 0026 FFF7FEFF 		bl	MX_TIM2_Init
 231              	.LVL16:
 105:Core/Src/main.c **** 
 232              		.loc 1 105 3 view .LVU64
 233 002a 114C     		ldr	r4, .L16
 234 002c 0021     		movs	r1, #0
 235 002e 2046     		mov	r0, r4
 236 0030 FFF7FEFF 		bl	HAL_TIM_PWM_Start
 237              	.LVL17:
 108:Core/Src/main.c ****   HAL_Delay(20); // Attente de 20 ms
 238              		.loc 1 108 3 view .LVU65
 239 0034 2368     		ldr	r3, [r4]
 240 0036 4FF47A72 		mov	r2, #1000
 241 003a 5A63     		str	r2, [r3, #52]
 109:Core/Src/main.c **** 
 242              		.loc 1 109 3 view .LVU66
 243 003c 1420     		movs	r0, #20
 244 003e FFF7FEFF 		bl	HAL_Delay
 245              	.LVL18:
 246 0042 12E0     		b	.L14
 247              	.LVL19:
 248              	.L13:
 249              	.LBB6:
 129:Core/Src/main.c ****    HAL_Delay(20); // Attente 20 ms entre chaque étape de progression
 250              		.loc 1 129 4 discriminator 3 view .LVU67
 251 0044 0A4B     		ldr	r3, .L16
 252 0046 1B68     		ldr	r3, [r3]
 253 0048 5C63     		str	r4, [r3, #52]
 130:Core/Src/main.c **** 
 254              		.loc 1 130 4 discriminator 3 view .LVU68
 255 004a 1420     		movs	r0, #20
 256 004c FFF7FEFF 		bl	HAL_Delay
 257              	.LVL20:
 128:Core/Src/main.c ****    __HAL_TIM_SET_COMPARE(&htim1, TIM_CHANNEL_1, i);
 258              		.loc 1 128 36 discriminator 3 view .LVU69
 259 0050 0134     		adds	r4, r4, #1
 260              	.LVL21:
 261              	.L12:
 128:Core/Src/main.c ****    __HAL_TIM_SET_COMPARE(&htim1, TIM_CHANNEL_1, i);
 262              		.loc 1 128 26 discriminator 1 view .LVU70
 263 0052 40F22E43 		movw	r3, #1070
 264 0056 9C42     		cmp	r4, r3
 265 0058 F4DD     		ble	.L13
ARM GAS  C:\Users\billa\AppData\Local\Temp\ccAkbpv1.s 			page 14


 266              	.LBE6:
 133:Core/Src/main.c ****     // Arrête la génération du signal PWM
 267              		.loc 1 133 5 view .LVU71
 268 005a 4FF4FA60 		mov	r0, #2000
 269 005e FFF7FEFF 		bl	HAL_Delay
 270              	.LVL22:
 135:Core/Src/main.c **** 
 271              		.loc 1 135 4 view .LVU72
 272 0062 0021     		movs	r1, #0
 273 0064 0248     		ldr	r0, .L16
 274 0066 FFF7FEFF 		bl	HAL_TIM_PWM_Stop
 275              	.LVL23:
 115:Core/Src/main.c ****   {
 276              		.loc 1 115 9 view .LVU73
 277              	.L14:
 115:Core/Src/main.c ****   {
 278              		.loc 1 115 3 view .LVU74
 128:Core/Src/main.c ****    __HAL_TIM_SET_COMPARE(&htim1, TIM_CHANNEL_1, i);
 279              		.loc 1 128 3 view .LVU75
 280              	.LBB7:
 128:Core/Src/main.c ****    __HAL_TIM_SET_COMPARE(&htim1, TIM_CHANNEL_1, i);
 281              		.loc 1 128 7 view .LVU76
 128:Core/Src/main.c ****    __HAL_TIM_SET_COMPARE(&htim1, TIM_CHANNEL_1, i);
 282              		.loc 1 128 11 is_stmt 0 view .LVU77
 283 006a 4FF47A74 		mov	r4, #1000
 128:Core/Src/main.c ****    __HAL_TIM_SET_COMPARE(&htim1, TIM_CHANNEL_1, i);
 284              		.loc 1 128 3 view .LVU78
 285 006e F0E7     		b	.L12
 286              	.L17:
 287              		.align	2
 288              	.L16:
 289 0070 00000000 		.word	htim1
 290              	.LBE7:
 291              		.cfi_endproc
 292              	.LFE319:
 294              		.text
 295              	.Letext0:
 296              		.file 3 "c:\\users\\billa\\appdata\\roaming\\code\\user\\globalstorage\\bmd.stm32-for-vscode\\@xpa
 297              		.file 4 "c:\\users\\billa\\appdata\\roaming\\code\\user\\globalstorage\\bmd.stm32-for-vscode\\@xpa
 298              		.file 5 "Drivers/CMSIS/Device/ST/STM32L4xx/Include/stm32l412xx.h"
 299              		.file 6 "Drivers/STM32L4xx_HAL_Driver/Inc/stm32l4xx_hal_def.h"
 300              		.file 7 "Drivers/STM32L4xx_HAL_Driver/Inc/stm32l4xx_hal_rcc.h"
 301              		.file 8 "Drivers/STM32L4xx_HAL_Driver/Inc/stm32l4xx_hal_dma.h"
 302              		.file 9 "Drivers/STM32L4xx_HAL_Driver/Inc/stm32l4xx_hal_tim.h"
 303              		.file 10 "Drivers/STM32L4xx_HAL_Driver/Inc/stm32l4xx_hal_pwr_ex.h"
 304              		.file 11 "Core/Inc/tim.h"
 305              		.file 12 "Core/Inc/i2c.h"
 306              		.file 13 "Core/Inc/adc.h"
 307              		.file 14 "Core/Inc/spi.h"
 308              		.file 15 "Core/Inc/usart.h"
 309              		.file 16 "Core/Inc/dma.h"
 310              		.file 17 "Core/Inc/gpio.h"
 311              		.file 18 "Drivers/STM32L4xx_HAL_Driver/Inc/stm32l4xx_hal.h"
 312              		.file 19 "<built-in>"
ARM GAS  C:\Users\billa\AppData\Local\Temp\ccAkbpv1.s 			page 15

